target datalayout = "e-m:e-p270:32:32-p271:32:32-p272:64:64-i64:64-i128:128-f80:128-n8:16:32:64-S128"
target triple = "x86_64-pc-linux-gnu"

%"class.__gnu_cxx::__normal_iterator.291" = type { ptr }

@.str.21 = private unnamed_addr constant [2 x i8] c"\\\00", align 1

; Function Attrs: mustprogress nounwind uwtable
define linkonce_odr dso_local noundef nonnull align 8 dereferenceable(8) ptr @_ZNK9__gnu_cxx17__normal_iteratorIPKcNSt7__cxx1112basic_stringIcSt11char_traitsIcESaIcEEEE4baseEv(ptr noundef nonnull align 8 dereferenceable(8) %0) #5 comdat align 2 {
  %2 = alloca ptr, align 8
  store ptr %0, ptr %2, align 8
  %3 = load ptr, ptr %2, align 8
  %4 = getelementptr inbounds %"class.__gnu_cxx::__normal_iterator.291", ptr %3, i32 0, i32 0
  ret ptr %4
}

; Function Attrs: mustprogress nounwind uwtable
define linkonce_odr dso_local noundef nonnull align 8 dereferenceable(8) ptr @_ZN9__gnu_cxx17__normal_iteratorIPKcNSt7__cxx1112basic_stringIcSt11char_traitsIcESaIcEEEEppEv(ptr noundef nonnull align 8 dereferenceable(8) %0) #5 comdat align 2 {
  %2 = alloca ptr, align 8
  store ptr %0, ptr %2, align 8
  %3 = load ptr, ptr %2, align 8
  %4 = getelementptr inbounds %"class.__gnu_cxx::__normal_iterator.291", ptr %3, i32 0, i32 0
  %5 = load ptr, ptr %4, align 8
  %6 = getelementptr inbounds i8, ptr %5, i32 1
  store ptr %6, ptr %4, align 8
  ret ptr %3
}

; Function Attrs: mustprogress nounwind uwtable
define linkonce_odr dso_local noundef nonnull align 1 dereferenceable(1) ptr @_ZNK9__gnu_cxx17__normal_iteratorIPKcNSt7__cxx1112basic_stringIcSt11char_traitsIcESaIcEEEEdeEv(ptr noundef nonnull align 8 dereferenceable(8) %0) #5 comdat align 2 {
  %2 = alloca ptr, align 8
  store ptr %0, ptr %2, align 8
  %3 = load ptr, ptr %2, align 8
  %4 = getelementptr inbounds %"class.__gnu_cxx::__normal_iterator.291", ptr %3, i32 0, i32 0
  %5 = load ptr, ptr %4, align 8
  ret ptr %5
}

; Function Attrs: mustprogress nounwind uwtable
define linkonce_odr dso_local noundef zeroext i1 @_ZN9__gnu_cxxneIPKcNSt7__cxx1112basic_stringIcSt11char_traitsIcESaIcEEEEEbRKNS_17__normal_iteratorIT_T0_EESE_(ptr noundef nonnull align 8 dereferenceable(8) %0, ptr noundef nonnull align 8 dereferenceable(8) %1) #5 comdat {
  %3 = alloca ptr, align 8
  %4 = alloca ptr, align 8
  store ptr %0, ptr %3, align 8
  store ptr %1, ptr %4, align 8
  %5 = load ptr, ptr %3, align 8
  %6 = call noundef nonnull align 8 dereferenceable(8) ptr @_ZNK9__gnu_cxx17__normal_iteratorIPKcNSt7__cxx1112basic_stringIcSt11char_traitsIcESaIcEEEE4baseEv(ptr noundef nonnull align 8 dereferenceable(8) %5) #3
  %7 = load ptr, ptr %6, align 8
  %8 = load ptr, ptr %4, align 8
  %9 = call noundef nonnull align 8 dereferenceable(8) ptr @_ZNK9__gnu_cxx17__normal_iteratorIPKcNSt7__cxx1112basic_stringIcSt11char_traitsIcESaIcEEEE4baseEv(ptr noundef nonnull align 8 dereferenceable(8) %8) #3
  %10 = load ptr, ptr %9, align 8
  %11 = icmp ne ptr %7, %10
  ret i1 %11
}

; Function Attrs: mustprogress uwtable
define dso_local void @_ZN19cmFindLibraryHelper16RegexFromLiteralERNSt7__cxx1112basic_stringIcSt11char_traitsIcESaIcEEERKS5_(ptr noundef nonnull align 8 dereferenceable(360) %0, ptr noundef nonnull align 8 dereferenceable(32) %1, ptr noundef nonnull align 8 dereferenceable(32) %2) #4 align 2 {
  %4 = alloca ptr, align 8
  %5 = alloca ptr, align 8
  %6 = alloca ptr, align 8
  %7 = alloca ptr, align 8
  %8 = alloca %"class.__gnu_cxx::__normal_iterator.291", align 8
  %9 = alloca %"class.__gnu_cxx::__normal_iterator.291", align 8
  %10 = alloca i8, align 1
  store ptr %0, ptr %4, align 8
  store ptr %1, ptr %5, align 8
  store ptr %2, ptr %6, align 8
  %11 = load ptr, ptr %6, align 8
  store ptr %11, ptr %7, align 8
  %12 = load ptr, ptr %7, align 8
  %13 = call ptr @_ZNKSt7__cxx1112basic_stringIcSt11char_traitsIcESaIcEE5beginEv(ptr noundef nonnull align 8 dereferenceable(32) %12) #3
  %14 = getelementptr inbounds %"class.__gnu_cxx::__normal_iterator.291", ptr %8, i32 0, i32 0
  store ptr %13, ptr %14, align 8
  %15 = load ptr, ptr %7, align 8
  %16 = call ptr @_ZNKSt7__cxx1112basic_stringIcSt11char_traitsIcESaIcEE3endEv(ptr noundef nonnull align 8 dereferenceable(32) %15) #3
  %17 = getelementptr inbounds %"class.__gnu_cxx::__normal_iterator.291", ptr %9, i32 0, i32 0
  store ptr %16, ptr %17, align 8
  br label %18

18:                                               ; preds = %77, %3
  %19 = call noundef zeroext i1 @_ZN9__gnu_cxxneIPKcNSt7__cxx1112basic_stringIcSt11char_traitsIcESaIcEEEEEbRKNS_17__normal_iteratorIT_T0_EESE_(ptr noundef nonnull align 8 dereferenceable(8) %8, ptr noundef nonnull align 8 dereferenceable(8) %9) #3
  br i1 %19, label %20, label %79

20:                                               ; preds = %18
  %21 = call noundef nonnull align 1 dereferenceable(1) ptr @_ZNK9__gnu_cxx17__normal_iteratorIPKcNSt7__cxx1112basic_stringIcSt11char_traitsIcESaIcEEEEdeEv(ptr noundef nonnull align 8 dereferenceable(8) %8) #3
  %22 = load i8, ptr %21, align 1
  store i8 %22, ptr %10, align 1
  %23 = load i8, ptr %10, align 1
  %24 = sext i8 %23 to i32
  %25 = icmp eq i32 %24, 91
  br i1 %25, label %70, label %26

26:                                               ; preds = %20
  %27 = load i8, ptr %10, align 1
  %28 = sext i8 %27 to i32
  %29 = icmp eq i32 %28, 93
  br i1 %29, label %70, label %30

30:                                               ; preds = %26
  %31 = load i8, ptr %10, align 1
  %32 = sext i8 %31 to i32
  %33 = icmp eq i32 %32, 40
  br i1 %33, label %70, label %34

34:                                               ; preds = %30
  %35 = load i8, ptr %10, align 1
  %36 = sext i8 %35 to i32
  %37 = icmp eq i32 %36, 41
  br i1 %37, label %70, label %38

38:                                               ; preds = %34
  %39 = load i8, ptr %10, align 1
  %40 = sext i8 %39 to i32
  %41 = icmp eq i32 %40, 92
  br i1 %41, label %70, label %42

42:                                               ; preds = %38
  %43 = load i8, ptr %10, align 1
  %44 = sext i8 %43 to i32
  %45 = icmp eq i32 %44, 46
  br i1 %45, label %70, label %46

46:                                               ; preds = %42
  %47 = load i8, ptr %10, align 1
  %48 = sext i8 %47 to i32
  %49 = icmp eq i32 %48, 42
  br i1 %49, label %70, label %50

50:                                               ; preds = %46
  %51 = load i8, ptr %10, align 1
  %52 = sext i8 %51 to i32
  %53 = icmp eq i32 %52, 43
  br i1 %53, label %70, label %54

54:                                               ; preds = %50
  %55 = load i8, ptr %10, align 1
  %56 = sext i8 %55 to i32
  %57 = icmp eq i32 %56, 63
  br i1 %57, label %70, label %58

58:                                               ; preds = %54
  %59 = load i8, ptr %10, align 1
  %60 = sext i8 %59 to i32
  %61 = icmp eq i32 %60, 45
  br i1 %61, label %70, label %62

62:                                               ; preds = %58
  %63 = load i8, ptr %10, align 1
  %64 = sext i8 %63 to i32
  %65 = icmp eq i32 %64, 94
  br i1 %65, label %70, label %66

66:                                               ; preds = %62
  %67 = load i8, ptr %10, align 1
  %68 = sext i8 %67 to i32
  %69 = icmp eq i32 %68, 36
  br i1 %69, label %70, label %73

70:                                               ; preds = %66, %62, %58, %54, %50, %46, %42, %38, %34, %30, %26, %20
  %71 = load ptr, ptr %5, align 8
  %72 = call noundef nonnull align 8 dereferenceable(32) ptr @_ZNSt7__cxx1112basic_stringIcSt11char_traitsIcESaIcEEpLEPKc(ptr noundef nonnull align 8 dereferenceable(32) %71, ptr noundef @.str.21)
  br label %73

73:                                               ; preds = %70, %66
  %74 = load i8, ptr %10, align 1
  %75 = load ptr, ptr %5, align 8
  %76 = call noundef nonnull align 8 dereferenceable(32) ptr @_ZNSt7__cxx1112basic_stringIcSt11char_traitsIcESaIcEEpLEc(ptr noundef nonnull align 8 dereferenceable(32) %75, i8 noundef signext %74)
  br label %77

77:                                               ; preds = %73
  %78 = call noundef nonnull align 8 dereferenceable(8) ptr @_ZN9__gnu_cxx17__normal_iteratorIPKcNSt7__cxx1112basic_stringIcSt11char_traitsIcESaIcEEEEppEv(ptr noundef nonnull align 8 dereferenceable(8) %8) #3
  br label %18

79:                                               ; preds = %18
  ret void
}