; Function Attrs: mustprogress uwtable
define dso_local void @_ZN19cmFindLibraryHelper16RegexFromLiteralERNSt7__cxx1112basic_stringIcSt11char_traitsIcESaIcEEERKS5_(ptr nocapture noundef nonnull readnone align 8 dereferenceable(360) %0, ptr noundef nonnull align 8 dereferenceable(32) %1, ptr noundef nonnull align 8 dereferenceable(32) %2) local_unnamed_addr #3 align 2 {
  %4 = tail call ptr @_ZNKSt7__cxx1112basic_stringIcSt11char_traitsIcESaIcEE5beginEv(ptr noundef nonnull align 8 dereferenceable(32) %2) #17
  %5 = tail call ptr @_ZNKSt7__cxx1112basic_stringIcSt11char_traitsIcESaIcEE3endEv(ptr noundef nonnull align 8 dereferenceable(32) %2) #17
  %.not52 = icmp eq ptr %4, %5
  br i1 %.not52, label %._crit_edge, label %.lr.ph

.lr.ph:                                           ; preds = %3, %9
  %.sroa.049.053 = phi ptr [ %11, %9 ], [ %4, %3 ]
  %6 = load i8, ptr %.sroa.049.053, align 1
  switch i8 %6, label %9 [
    i8 94, label %7
    i8 93, label %7
    i8 92, label %7
    i8 91, label %7
    i8 63, label %7
    i8 46, label %7
    i8 45, label %7
    i8 43, label %7
    i8 42, label %7
    i8 41, label %7
    i8 40, label %7
    i8 36, label %7
  ]

7:                                                ; preds = %.lr.ph, %.lr.ph, %.lr.ph, %.lr.ph, %.lr.ph, %.lr.ph, %.lr.ph, %.lr.ph, %.lr.ph, %.lr.ph, %.lr.ph, %.lr.ph
  %8 = tail call noundef nonnull align 8 dereferenceable(32) ptr @_ZNSt7__cxx1112basic_stringIcSt11char_traitsIcESaIcEEpLEPKc(ptr noundef nonnull align 8 dereferenceable(32) %1, ptr noundef nonnull @.str.21)
  br label %9

9:                                                ; preds = %.lr.ph, %7
  %10 = tail call noundef nonnull align 8 dereferenceable(32) ptr @_ZNSt7__cxx1112basic_stringIcSt11char_traitsIcESaIcEEpLEc(ptr noundef nonnull align 8 dereferenceable(32) %1, i8 noundef signext %6)
  %11 = getelementptr inbounds i8, ptr %.sroa.049.053, i64 1
  %.not = icmp eq ptr %11, %5
  br i1 %.not, label %._crit_edge, label %.lr.ph

._crit_edge:                                      ; preds = %9, %3
  ret void
}